Certificate:
    Data:
        Version: 3 (0x2)
        Serial Number:
            2d:f7:78:a5:6d:f5:db:ce:1c:bc:67:88:f7:73:87:5a:5f:85:36:91
        Signature Algorithm: ecdsa-with-SHA256
        Issuer: C=IN, ST=AP, O=Reveal IQ Pvt, OU=Digital Health, CN=reveal.health/emailAddress=info@reveal.health
        Validity
            Not Before: Mar  2 01:57:21 2022 GMT
            Not After : Feb 28 01:57:21 2032 GMT
        Subject: C=IN, ST=AP, O=Reveal IQ Pvt, OU=Digital Health, CN=reveal.health/emailAddress=info@reveal.health
        Subject Public Key Info:
            Public Key Algorithm: id-ecPublicKey
                Public-Key: (256 bit)
                pub:
                    04:38:8d:b2:ad:6b:58:2c:1b:83:66:5a:72:d6:2e:
                    35:fe:dc:23:8a:03:53:96:0e:fe:ca:43:52:e1:4f:
                    59:1a:4e:15:36:98:80:22:ec:df:09:e1:38:12:4c:
                    ff:15:bd:c8:ed:cf:50:bb:7b:4a:17:0d:e2:65:73:
                    01:51:96:a2:13
                ASN1 OID: prime256v1
                NIST CURVE: P-256
        X509v3 extensions:
            X509v3 Subject Key Identifier: 
                97:2E:17:34:93:06:90:A7:FD:20:09:47:3F:08:CF:E4:D4:D9:9C:83
            X509v3 Authority Key Identifier: 
                keyid:97:2E:17:34:93:06:90:A7:FD:20:09:47:3F:08:CF:E4:D4:D9:9C:83
                DirName:/C=IN/ST=AP/O=Reveal IQ Pvt/OU=Digital Health/CN=reveal.health/emailAddress=info@reveal.health
                serial:2D:F7:78:A5:6D:F5:DB:CE:1C:BC:67:88:F7:73:87:5A:5F:85:36:91

            X509v3 Basic Constraints: 
                CA:TRUE
    Signature Algorithm: ecdsa-with-SHA256
         30:44:02:20:1b:25:6c:d3:84:3f:c2:ef:72:06:63:4c:c8:b8:
         a0:54:91:13:f7:35:d1:62:76:92:f0:e4:03:35:3e:78:eb:90:
         02:20:2b:36:df:b6:a1:f1:a1:68:67:d3:29:fd:15:ec:46:30:
         cc:6a:16:0e:37:44:4c:40:3c:fc:8e:99:b3:e3:5c:f1
-----BEGIN CERTIFICATE-----
MIIDCTCCArCgAwIBAgIULfd4pW31284cvGeI93OHWl+FNpEwCgYIKoZIzj0EAwIw
gYYxCzAJBgNVBAYTAklOMQswCQYDVQQIDAJBUDEWMBQGA1UECgwNUmV2ZWFsIElR
IFB2dDEXMBUGA1UECwwORGlnaXRhbCBIZWFsdGgxFjAUBgNVBAMMDXJldmVhbC5o
ZWFsdGgxITAfBgkqhkiG9w0BCQEWEmluZm9AcmV2ZWFsLmhlYWx0aDAeFw0yMjAz
MDIwMTU3MjFaFw0zMjAyMjgwMTU3MjFaMIGGMQswCQYDVQQGEwJJTjELMAkGA1UE
CAwCQVAxFjAUBgNVBAoMDVJldmVhbCBJUSBQdnQxFzAVBgNVBAsMDkRpZ2l0YWwg
SGVhbHRoMRYwFAYDVQQDDA1yZXZlYWwuaGVhbHRoMSEwHwYJKoZIhvcNAQkBFhJp
bmZvQHJldmVhbC5oZWFsdGgwWTATBgcqhkjOPQIBBggqhkjOPQMBBwNCAAQ4jbKt
a1gsG4NmWnLWLjX+3COKA1OWDv7KQ1LhT1kaThU2mIAi7N8J4TgSTP8Vvcjtz1C7
e0oXDeJlcwFRlqITo4H5MIH2MB0GA1UdDgQWBBSXLhc0kwaQp/0gCUc/CM/k1Nmc
gzCBxgYDVR0jBIG+MIG7gBSXLhc0kwaQp/0gCUc/CM/k1Nmcg6GBjKSBiTCBhjEL
MAkGA1UEBhMCSU4xCzAJBgNVBAgMAkFQMRYwFAYDVQQKDA1SZXZlYWwgSVEgUHZ0
MRcwFQYDVQQLDA5EaWdpdGFsIEhlYWx0aDEWMBQGA1UEAwwNcmV2ZWFsLmhlYWx0
aDEhMB8GCSqGSIb3DQEJARYSaW5mb0ByZXZlYWwuaGVhbHRoghQt93ilbfXbzhy8
Z4j3c4daX4U2kTAMBgNVHRMEBTADAQH/MAoGCCqGSM49BAMCA0cAMEQCIBslbNOE
P8LvcgZjTMi4oFSRE/c10WJ2kvDkAzU+eOuQAiArNt+2ofGhaGfTKf0V7EYwzGoW
DjdETEA8/I6Zs+Nc8Q==
-----END CERTIFICATE-----
Certificate:
    Data:
        Version: 3 (0x2)
        Serial Number:
            03:dc:33:20:ce:b8:e1:59:b6:b1:c1:48:fc:09:ba:9d:e7:75:c3:ea
        Signature Algorithm: ecdsa-with-SHA256
        Issuer: C=IN, ST=AP, O=Reveal IQ Pvt, OU=Digital Health, CN=reveal.health/emailAddress=info@reveal.health
        Validity
            Not Before: Mar  2 01:58:48 2022 GMT
            Not After : Feb 28 01:58:48 2032 GMT
        Subject: C=IN, ST=AP, O=Reveal IQ Pvt, OU=Digital Health, CN=Reveal Development/emailAddress=info@reveal.health
        Subject Public Key Info:
            Public Key Algorithm: id-ecPublicKey
                Public-Key: (256 bit)
                pub:
                    04:57:a5:cb:4f:db:ec:3d:17:ea:e2:3d:e2:2c:85:
                    0d:26:24:84:04:a4:59:57:64:b1:3c:d0:73:82:14:
                    dd:a4:31:b3:b0:b4:0a:c4:94:48:2a:03:c9:19:1f:
                    a4:27:24:1a:0f:76:2c:49:5e:0a:07:a8:d8:f1:5b:
                    d5:72:1d:bd:16
                ASN1 OID: prime256v1
                NIST CURVE: P-256
        X509v3 extensions:
            X509v3 Basic Constraints: 
                CA:TRUE
            Netscape Comment: 
                OpenSSL Generated Certificate
            X509v3 Subject Key Identifier: 
                EC:D4:69:AD:80:84:07:72:83:E3:7C:29:94:A4:7E:1A:35:11:BB:9E
            X509v3 Authority Key Identifier: 
                keyid:97:2E:17:34:93:06:90:A7:FD:20:09:47:3F:08:CF:E4:D4:D9:9C:83

    Signature Algorithm: ecdsa-with-SHA256
         30:46:02:21:00:c4:f3:95:f5:9b:2d:2b:1a:8d:44:4e:c3:e5:
         76:2e:d4:5a:89:d8:19:87:21:e0:5c:75:42:0e:16:4d:af:30:
         a4:02:21:00:d5:69:b8:e5:9f:91:50:2b:8f:b1:54:18:ac:c6:
         4e:35:0b:b7:ae:9f:38:f0:f7:04:6b:d1:0f:20:41:f4:90:a1
-----BEGIN CERTIFICATE-----
MIIClDCCAjmgAwIBAgIUA9wzIM644Vm2scFI/Am6ned1w+owCgYIKoZIzj0EAwIw
gYYxCzAJBgNVBAYTAklOMQswCQYDVQQIDAJBUDEWMBQGA1UECgwNUmV2ZWFsIElR
IFB2dDEXMBUGA1UECwwORGlnaXRhbCBIZWFsdGgxFjAUBgNVBAMMDXJldmVhbC5o
ZWFsdGgxITAfBgkqhkiG9w0BCQEWEmluZm9AcmV2ZWFsLmhlYWx0aDAeFw0yMjAz
MDIwMTU4NDhaFw0zMjAyMjgwMTU4NDhaMIGLMQswCQYDVQQGEwJJTjELMAkGA1UE
CAwCQVAxFjAUBgNVBAoMDVJldmVhbCBJUSBQdnQxFzAVBgNVBAsMDkRpZ2l0YWwg
SGVhbHRoMRswGQYDVQQDDBJSZXZlYWwgRGV2ZWxvcG1lbnQxITAfBgkqhkiG9w0B
CQEWEmluZm9AcmV2ZWFsLmhlYWx0aDBZMBMGByqGSM49AgEGCCqGSM49AwEHA0IA
BFely0/b7D0X6uI94iyFDSYkhASkWVdksTzQc4IU3aQxs7C0CsSUSCoDyRkfpCck
Gg92LEleCgeo2PFb1XIdvRajfjB8MAwGA1UdEwQFMAMBAf8wLAYJYIZIAYb4QgEN
BB8WHU9wZW5TU0wgR2VuZXJhdGVkIENlcnRpZmljYXRlMB0GA1UdDgQWBBTs1Gmt
gIQHcoPjfCmUpH4aNRG7njAfBgNVHSMEGDAWgBSXLhc0kwaQp/0gCUc/CM/k1Nmc
gzAKBggqhkjOPQQDAgNJADBGAiEAxPOV9ZstKxqNRE7D5XYu1FqJ2BmHIeBcdUIO
Fk2vMKQCIQDVabjln5FQK4+xVBisxk41C7eunzjw9wRr0Q8gQfSQoQ==
-----END CERTIFICATE-----
Certificate:
    Data:
        Version: 3 (0x2)
        Serial Number:
            01:d0:75:fc:85:a4:42:55:17:88:7c:e9:a0:bb:20:d4:14:59:23:8f
        Signature Algorithm: ecdsa-with-SHA256
        Issuer: C=IN, ST=AP, O=Reveal IQ Pvt, OU=Digital Health, CN=Reveal Development/emailAddress=info@reveal.health
        Validity
            Not Before: Mar  2 02:06:02 2022 GMT
            Not After : Feb 28 02:06:02 2032 GMT
        Subject: C=IN, ST=AP, O=Reveal IQ Pvt, OU=Digital Health, CN=DB_DEV_CA03/emailAddress=info@reveal.health
        Subject Public Key Info:
            Public Key Algorithm: id-ecPublicKey
                Public-Key: (256 bit)
                pub:
                    04:f9:6f:b1:44:fe:59:3c:79:10:15:c8:2d:75:b8:
                    a7:3b:5c:a2:c0:75:a3:72:13:1f:eb:4d:be:65:4d:
                    fd:9b:f3:ca:3a:15:47:ea:07:cf:7c:2c:78:25:2e:
                    c5:b3:a6:5a:53:65:11:5e:63:b7:db:54:c6:ac:25:
                    0c:c0:a5:c1:5b
                ASN1 OID: prime256v1
                NIST CURVE: P-256
        X509v3 extensions:
            X509v3 Basic Constraints: 
                CA:TRUE, pathlen:1
            X509v3 Subject Key Identifier: 
                CD:CE:4D:7D:7B:C7:3E:07:E8:DA:28:AA:20:8D:A7:56:39:F8:47:A7
            X509v3 Authority Key Identifier: 
                keyid:EC:D4:69:AD:80:84:07:72:83:E3:7C:29:94:A4:7E:1A:35:11:BB:9E

    Signature Algorithm: ecdsa-with-SHA256
         30:46:02:21:00:84:a9:b7:58:df:ac:e1:f3:94:db:1f:9a:35:
         2a:21:6c:40:e6:7b:0f:a4:3a:3f:2e:c3:18:4e:72:80:3c:77:
         76:02:21:00:91:98:bb:03:ef:94:f9:3f:45:5c:7d:55:bd:53:
         32:cb:0c:b2:67:92:62:18:53:9e:16:2b:6c:b7:05:c9:e0:10
-----BEGIN CERTIFICATE-----
MIICZzCCAgygAwIBAgIUAdB1/IWkQlUXiHzpoLsg1BRZI48wCgYIKoZIzj0EAwIw
gYsxCzAJBgNVBAYTAklOMQswCQYDVQQIDAJBUDEWMBQGA1UECgwNUmV2ZWFsIElR
IFB2dDEXMBUGA1UECwwORGlnaXRhbCBIZWFsdGgxGzAZBgNVBAMMElJldmVhbCBE
ZXZlbG9wbWVudDEhMB8GCSqGSIb3DQEJARYSaW5mb0ByZXZlYWwuaGVhbHRoMB4X
DTIyMDMwMjAyMDYwMloXDTMyMDIyODAyMDYwMlowgYQxCzAJBgNVBAYTAklOMQsw
CQYDVQQIDAJBUDEWMBQGA1UECgwNUmV2ZWFsIElRIFB2dDEXMBUGA1UECwwORGln
aXRhbCBIZWFsdGgxFDASBgNVBAMMC0RCX0RFVl9DQTAzMSEwHwYJKoZIhvcNAQkB
FhJpbmZvQHJldmVhbC5oZWFsdGgwWTATBgcqhkjOPQIBBggqhkjOPQMBBwNCAAT5
b7FE/lk8eRAVyC11uKc7XKLAdaNyEx/rTb5lTf2b88o6FUfqB898LHglLsWzplpT
ZRFeY7fbVMasJQzApcFbo1MwUTAPBgNVHRMECDAGAQH/AgEBMB0GA1UdDgQWBBTN
zk19e8c+B+jaKKogjadWOfhHpzAfBgNVHSMEGDAWgBTs1GmtgIQHcoPjfCmUpH4a
NRG7njAKBggqhkjOPQQDAgNJADBGAiEAhKm3WN+s4fOU2x+aNSohbEDmew+kOj8u
wxhOcoA8d3YCIQCRmLsD75T5P0VcfVW9UzLLDLJnkmIYU54WK2y3BcngEA==
-----END CERTIFICATE-----
