Certificate:
    Data:
        Version: 3 (0x2)
        Serial Number:
            2d:f7:78:a5:6d:f5:db:ce:1c:bc:67:88:f7:73:87:5a:5f:85:36:8f
        Signature Algorithm: ecdsa-with-SHA256
        Issuer: C=IN, ST=AP, O=Reveal Domain, OU=Digital Health, CN=reveal.health/emailAddress=info@reveal.health
        Validity
            Not Before: Feb 22 05:03:40 2022 GMT
            Not After : Feb 20 05:03:40 2032 GMT
        Subject: C=IN, ST=AP, O=Reveal Domain, OU=Digital Health, CN=reveal.health/emailAddress=info@reveal.health
        Subject Public Key Info:
            Public Key Algorithm: id-ecPublicKey
                Public-Key: (256 bit)
                pub:
                    04:38:8d:b2:ad:6b:58:2c:1b:83:66:5a:72:d6:2e:
                    35:fe:dc:23:8a:03:53:96:0e:fe:ca:43:52:e1:4f:
                    59:1a:4e:15:36:98:80:22:ec:df:09:e1:38:12:4c:
                    ff:15:bd:c8:ed:cf:50:bb:7b:4a:17:0d:e2:65:73:
                    01:51:96:a2:13
                ASN1 OID: prime256v1
                NIST CURVE: P-256
        X509v3 extensions:
            X509v3 Subject Key Identifier: 
                97:2E:17:34:93:06:90:A7:FD:20:09:47:3F:08:CF:E4:D4:D9:9C:83
            X509v3 Authority Key Identifier: 
                keyid:97:2E:17:34:93:06:90:A7:FD:20:09:47:3F:08:CF:E4:D4:D9:9C:83
                DirName:/C=IN/ST=AP/O=Reveal Domain/OU=Digital Health/CN=reveal.health/emailAddress=info@reveal.health
                serial:2D:F7:78:A5:6D:F5:DB:CE:1C:BC:67:88:F7:73:87:5A:5F:85:36:8F

            X509v3 Basic Constraints: 
                CA:TRUE
    Signature Algorithm: ecdsa-with-SHA256
         30:45:02:21:00:fd:cb:13:f6:88:ad:36:c1:96:79:5e:2d:e9:
         c2:88:32:d9:74:3f:63:ec:9f:d0:7b:12:0e:f9:4b:f3:6a:c8:
         5b:02:20:4b:55:f1:6a:fa:f6:3c:8a:af:de:4d:a2:92:cb:e0:
         03:7a:df:a2:bf:c1:a1:56:8e:08:da:0a:58:c1:ed:cc:fc
-----BEGIN CERTIFICATE-----
MIIDCjCCArCgAwIBAgIULfd4pW31284cvGeI93OHWl+FNo8wCgYIKoZIzj0EAwIw
gYYxCzAJBgNVBAYTAklOMQswCQYDVQQIDAJBUDEWMBQGA1UECgwNUmV2ZWFsIERv
bWFpbjEXMBUGA1UECwwORGlnaXRhbCBIZWFsdGgxFjAUBgNVBAMMDXJldmVhbC5o
ZWFsdGgxITAfBgkqhkiG9w0BCQEWEmluZm9AcmV2ZWFsLmhlYWx0aDAeFw0yMjAy
MjIwNTAzNDBaFw0zMjAyMjAwNTAzNDBaMIGGMQswCQYDVQQGEwJJTjELMAkGA1UE
CAwCQVAxFjAUBgNVBAoMDVJldmVhbCBEb21haW4xFzAVBgNVBAsMDkRpZ2l0YWwg
SGVhbHRoMRYwFAYDVQQDDA1yZXZlYWwuaGVhbHRoMSEwHwYJKoZIhvcNAQkBFhJp
bmZvQHJldmVhbC5oZWFsdGgwWTATBgcqhkjOPQIBBggqhkjOPQMBBwNCAAQ4jbKt
a1gsG4NmWnLWLjX+3COKA1OWDv7KQ1LhT1kaThU2mIAi7N8J4TgSTP8Vvcjtz1C7
e0oXDeJlcwFRlqITo4H5MIH2MB0GA1UdDgQWBBSXLhc0kwaQp/0gCUc/CM/k1Nmc
gzCBxgYDVR0jBIG+MIG7gBSXLhc0kwaQp/0gCUc/CM/k1Nmcg6GBjKSBiTCBhjEL
MAkGA1UEBhMCSU4xCzAJBgNVBAgMAkFQMRYwFAYDVQQKDA1SZXZlYWwgRG9tYWlu
MRcwFQYDVQQLDA5EaWdpdGFsIEhlYWx0aDEWMBQGA1UEAwwNcmV2ZWFsLmhlYWx0
aDEhMB8GCSqGSIb3DQEJARYSaW5mb0ByZXZlYWwuaGVhbHRoghQt93ilbfXbzhy8
Z4j3c4daX4U2jzAMBgNVHRMEBTADAQH/MAoGCCqGSM49BAMCA0gAMEUCIQD9yxP2
iK02wZZ5Xi3pwogy2XQ/Y+yf0HsSDvlL82rIWwIgS1Xxavr2PIqv3k2iksvgA3rf
or/BoVaOCNoKWMHtzPw=
-----END CERTIFICATE-----
Certificate:
    Data:
        Version: 3 (0x2)
        Serial Number:
            23:31:98:e5:33:79:e3:3e:f1:cd:51:f1:39:39:fc:f7:8e:dd:6f:4a
        Signature Algorithm: ecdsa-with-SHA256
        Issuer: C=IN, ST=AP, O=Reveal IQ Pvt, OU=Digital Health, CN=reveal.health/emailAddress=info@reveal.health
        Validity
            Not Before: Feb 22 05:56:27 2022 GMT
            Not After : Feb 20 05:56:27 2032 GMT
        Subject: C=IN, ST=AP, O=Reveal IQ Pvt, OU=Digital Health, CN=Reveal Development/emailAddress=info@reveal.health
        Subject Public Key Info:
            Public Key Algorithm: id-ecPublicKey
                Public-Key: (256 bit)
                pub:
                    04:57:a5:cb:4f:db:ec:3d:17:ea:e2:3d:e2:2c:85:
                    0d:26:24:84:04:a4:59:57:64:b1:3c:d0:73:82:14:
                    dd:a4:31:b3:b0:b4:0a:c4:94:48:2a:03:c9:19:1f:
                    a4:27:24:1a:0f:76:2c:49:5e:0a:07:a8:d8:f1:5b:
                    d5:72:1d:bd:16
                ASN1 OID: prime256v1
                NIST CURVE: P-256
        X509v3 extensions:
            X509v3 Basic Constraints: 
                CA:TRUE
            Netscape Comment: 
                OpenSSL Generated Certificate
            X509v3 Subject Key Identifier: 
                EC:D4:69:AD:80:84:07:72:83:E3:7C:29:94:A4:7E:1A:35:11:BB:9E
            X509v3 Authority Key Identifier: 
                keyid:97:2E:17:34:93:06:90:A7:FD:20:09:47:3F:08:CF:E4:D4:D9:9C:83

    Signature Algorithm: ecdsa-with-SHA256
         30:45:02:21:00:aa:63:d5:ef:3f:32:16:8a:4e:ea:81:34:84:
         6f:30:81:19:b8:34:56:19:f7:89:a1:64:c6:f6:eb:36:29:de:
         ca:02:20:43:7b:b4:64:c8:df:9f:e6:57:29:8c:92:13:5d:40:
         17:27:a5:1b:2a:1d:5b:7a:df:0e:1f:75:f6:2a:d0:d4:30
-----BEGIN CERTIFICATE-----
MIICkzCCAjmgAwIBAgIUIzGY5TN54z7xzVHxOTn8947db0owCgYIKoZIzj0EAwIw
gYYxCzAJBgNVBAYTAklOMQswCQYDVQQIDAJBUDEWMBQGA1UECgwNUmV2ZWFsIElR
IFB2dDEXMBUGA1UECwwORGlnaXRhbCBIZWFsdGgxFjAUBgNVBAMMDXJldmVhbC5o
ZWFsdGgxITAfBgkqhkiG9w0BCQEWEmluZm9AcmV2ZWFsLmhlYWx0aDAeFw0yMjAy
MjIwNTU2MjdaFw0zMjAyMjAwNTU2MjdaMIGLMQswCQYDVQQGEwJJTjELMAkGA1UE
CAwCQVAxFjAUBgNVBAoMDVJldmVhbCBJUSBQdnQxFzAVBgNVBAsMDkRpZ2l0YWwg
SGVhbHRoMRswGQYDVQQDDBJSZXZlYWwgRGV2ZWxvcG1lbnQxITAfBgkqhkiG9w0B
CQEWEmluZm9AcmV2ZWFsLmhlYWx0aDBZMBMGByqGSM49AgEGCCqGSM49AwEHA0IA
BFely0/b7D0X6uI94iyFDSYkhASkWVdksTzQc4IU3aQxs7C0CsSUSCoDyRkfpCck
Gg92LEleCgeo2PFb1XIdvRajfjB8MAwGA1UdEwQFMAMBAf8wLAYJYIZIAYb4QgEN
BB8WHU9wZW5TU0wgR2VuZXJhdGVkIENlcnRpZmljYXRlMB0GA1UdDgQWBBTs1Gmt
gIQHcoPjfCmUpH4aNRG7njAfBgNVHSMEGDAWgBSXLhc0kwaQp/0gCUc/CM/k1Nmc
gzAKBggqhkjOPQQDAgNIADBFAiEAqmPV7z8yFopO6oE0hG8wgRm4NFYZ94mhZMb2
6zYp3soCIEN7tGTI35/mVymMkhNdQBcnpRsqHVt63w4fdfYq0NQw
-----END CERTIFICATE-----
Certificate:
    Data:
        Version: 3 (0x2)
        Serial Number:
            6e:13:55:7d:13:25:48:80:e5:d5:82:14:68:2b:61:fe:55:78:89:c3
        Signature Algorithm: ecdsa-with-SHA256
        Issuer: C=IN, ST=AP, O=Reveal IQ Pvt, OU=Digital Health, CN=Reveal Development/emailAddress=info@reveal.health
        Validity
            Not Before: Mar  2 00:46:34 2022 GMT
            Not After : Feb 28 00:46:34 2032 GMT
        Subject: C=IN, ST=AP, O=Reveal IQ Pvt, OU=Digital Health, CN=DB_DEV_CA03/emailAddress=info@reveal.health
        Subject Public Key Info:
            Public Key Algorithm: id-ecPublicKey
                Public-Key: (256 bit)
                pub:
                    04:f9:6f:b1:44:fe:59:3c:79:10:15:c8:2d:75:b8:
                    a7:3b:5c:a2:c0:75:a3:72:13:1f:eb:4d:be:65:4d:
                    fd:9b:f3:ca:3a:15:47:ea:07:cf:7c:2c:78:25:2e:
                    c5:b3:a6:5a:53:65:11:5e:63:b7:db:54:c6:ac:25:
                    0c:c0:a5:c1:5b
                ASN1 OID: prime256v1
                NIST CURVE: P-256
        X509v3 extensions:
            X509v3 Basic Constraints: 
                CA:TRUE, pathlen:1
            X509v3 Subject Key Identifier: 
                CD:CE:4D:7D:7B:C7:3E:07:E8:DA:28:AA:20:8D:A7:56:39:F8:47:A7
            X509v3 Authority Key Identifier: 
                keyid:EC:D4:69:AD:80:84:07:72:83:E3:7C:29:94:A4:7E:1A:35:11:BB:9E

    Signature Algorithm: ecdsa-with-SHA256
         30:46:02:21:00:a3:ad:a4:00:8e:27:8b:40:d3:9f:03:22:e0:
         d9:bd:46:25:44:bb:19:55:9b:df:da:fe:42:da:18:58:52:1f:
         8d:02:21:00:f1:b3:fa:ab:8c:a5:db:5a:33:65:81:d0:1a:02:
         2e:1f:89:89:58:a7:b9:b7:2c:34:f6:1b:aa:98:68:04:1e:d0
-----BEGIN CERTIFICATE-----
MIICZzCCAgygAwIBAgIUbhNVfRMlSIDl1YIUaCth/lV4icMwCgYIKoZIzj0EAwIw
gYsxCzAJBgNVBAYTAklOMQswCQYDVQQIDAJBUDEWMBQGA1UECgwNUmV2ZWFsIElR
IFB2dDEXMBUGA1UECwwORGlnaXRhbCBIZWFsdGgxGzAZBgNVBAMMElJldmVhbCBE
ZXZlbG9wbWVudDEhMB8GCSqGSIb3DQEJARYSaW5mb0ByZXZlYWwuaGVhbHRoMB4X
DTIyMDMwMjAwNDYzNFoXDTMyMDIyODAwNDYzNFowgYQxCzAJBgNVBAYTAklOMQsw
CQYDVQQIDAJBUDEWMBQGA1UECgwNUmV2ZWFsIElRIFB2dDEXMBUGA1UECwwORGln
aXRhbCBIZWFsdGgxFDASBgNVBAMMC0RCX0RFVl9DQTAzMSEwHwYJKoZIhvcNAQkB
FhJpbmZvQHJldmVhbC5oZWFsdGgwWTATBgcqhkjOPQIBBggqhkjOPQMBBwNCAAT5
b7FE/lk8eRAVyC11uKc7XKLAdaNyEx/rTb5lTf2b88o6FUfqB898LHglLsWzplpT
ZRFeY7fbVMasJQzApcFbo1MwUTAPBgNVHRMECDAGAQH/AgEBMB0GA1UdDgQWBBTN
zk19e8c+B+jaKKogjadWOfhHpzAfBgNVHSMEGDAWgBTs1GmtgIQHcoPjfCmUpH4a
NRG7njAKBggqhkjOPQQDAgNJADBGAiEAo62kAI4ni0DTnwMi4Nm9RiVEuxlVm9/a
/kLaGFhSH40CIQDxs/qrjKXbWjNlgdAaAi4fiYlYp7m3LDT2G6qYaAQe0A==
-----END CERTIFICATE-----
