Certificate:
    Data:
        Version: 3 (0x2)
        Serial Number:
            2d:f7:78:a5:6d:f5:db:ce:1c:bc:67:88:f7:73:87:5a:5f:85:36:8f
        Signature Algorithm: ecdsa-with-SHA256
        Issuer: C=IN, ST=AP, O=Reveal Domain, OU=Digital Health, CN=reveal.health/emailAddress=info@reveal.health
        Validity
            Not Before: Feb 22 05:03:40 2022 GMT
            Not After : Feb 20 05:03:40 2032 GMT
        Subject: C=IN, ST=AP, O=Reveal Domain, OU=Digital Health, CN=reveal.health/emailAddress=info@reveal.health
        Subject Public Key Info:
            Public Key Algorithm: id-ecPublicKey
                Public-Key: (256 bit)
                pub:
                    04:38:8d:b2:ad:6b:58:2c:1b:83:66:5a:72:d6:2e:
                    35:fe:dc:23:8a:03:53:96:0e:fe:ca:43:52:e1:4f:
                    59:1a:4e:15:36:98:80:22:ec:df:09:e1:38:12:4c:
                    ff:15:bd:c8:ed:cf:50:bb:7b:4a:17:0d:e2:65:73:
                    01:51:96:a2:13
                ASN1 OID: prime256v1
                NIST CURVE: P-256
        X509v3 extensions:
            X509v3 Subject Key Identifier: 
                97:2E:17:34:93:06:90:A7:FD:20:09:47:3F:08:CF:E4:D4:D9:9C:83
            X509v3 Authority Key Identifier: 
                keyid:97:2E:17:34:93:06:90:A7:FD:20:09:47:3F:08:CF:E4:D4:D9:9C:83
                DirName:/C=IN/ST=AP/O=Reveal Domain/OU=Digital Health/CN=reveal.health/emailAddress=info@reveal.health
                serial:2D:F7:78:A5:6D:F5:DB:CE:1C:BC:67:88:F7:73:87:5A:5F:85:36:8F

            X509v3 Basic Constraints: 
                CA:TRUE
    Signature Algorithm: ecdsa-with-SHA256
         30:45:02:21:00:fd:cb:13:f6:88:ad:36:c1:96:79:5e:2d:e9:
         c2:88:32:d9:74:3f:63:ec:9f:d0:7b:12:0e:f9:4b:f3:6a:c8:
         5b:02:20:4b:55:f1:6a:fa:f6:3c:8a:af:de:4d:a2:92:cb:e0:
         03:7a:df:a2:bf:c1:a1:56:8e:08:da:0a:58:c1:ed:cc:fc
-----BEGIN CERTIFICATE-----
MIIDCjCCArCgAwIBAgIULfd4pW31284cvGeI93OHWl+FNo8wCgYIKoZIzj0EAwIw
gYYxCzAJBgNVBAYTAklOMQswCQYDVQQIDAJBUDEWMBQGA1UECgwNUmV2ZWFsIERv
bWFpbjEXMBUGA1UECwwORGlnaXRhbCBIZWFsdGgxFjAUBgNVBAMMDXJldmVhbC5o
ZWFsdGgxITAfBgkqhkiG9w0BCQEWEmluZm9AcmV2ZWFsLmhlYWx0aDAeFw0yMjAy
MjIwNTAzNDBaFw0zMjAyMjAwNTAzNDBaMIGGMQswCQYDVQQGEwJJTjELMAkGA1UE
CAwCQVAxFjAUBgNVBAoMDVJldmVhbCBEb21haW4xFzAVBgNVBAsMDkRpZ2l0YWwg
SGVhbHRoMRYwFAYDVQQDDA1yZXZlYWwuaGVhbHRoMSEwHwYJKoZIhvcNAQkBFhJp
bmZvQHJldmVhbC5oZWFsdGgwWTATBgcqhkjOPQIBBggqhkjOPQMBBwNCAAQ4jbKt
a1gsG4NmWnLWLjX+3COKA1OWDv7KQ1LhT1kaThU2mIAi7N8J4TgSTP8Vvcjtz1C7
e0oXDeJlcwFRlqITo4H5MIH2MB0GA1UdDgQWBBSXLhc0kwaQp/0gCUc/CM/k1Nmc
gzCBxgYDVR0jBIG+MIG7gBSXLhc0kwaQp/0gCUc/CM/k1Nmcg6GBjKSBiTCBhjEL
MAkGA1UEBhMCSU4xCzAJBgNVBAgMAkFQMRYwFAYDVQQKDA1SZXZlYWwgRG9tYWlu
MRcwFQYDVQQLDA5EaWdpdGFsIEhlYWx0aDEWMBQGA1UEAwwNcmV2ZWFsLmhlYWx0
aDEhMB8GCSqGSIb3DQEJARYSaW5mb0ByZXZlYWwuaGVhbHRoghQt93ilbfXbzhy8
Z4j3c4daX4U2jzAMBgNVHRMEBTADAQH/MAoGCCqGSM49BAMCA0gAMEUCIQD9yxP2
iK02wZZ5Xi3pwogy2XQ/Y+yf0HsSDvlL82rIWwIgS1Xxavr2PIqv3k2iksvgA3rf
or/BoVaOCNoKWMHtzPw=
-----END CERTIFICATE-----
Certificate:
    Data:
        Version: 3 (0x2)
        Serial Number:
            2d:f7:78:a5:6d:f5:db:ce:1c:bc:67:88:f7:73:87:5a:5f:85:36:8e
        Signature Algorithm: ecdsa-with-SHA256
        Issuer: C=IN, ST=AP, O=Reveal IQ PVT, OU=Digital Health, CN=reveal.health/emailAddress=info@reveal.health
        Validity
            Not Before: Feb 21 07:29:23 2022 GMT
            Not After : Feb 21 07:29:23 2023 GMT
        Subject: C=IN, ST=AP, O=Reveal IQ PVT, OU=Digital Health, CN=dev.reveal.health/emailAddress=info@reveal.health
        Subject Public Key Info:
            Public Key Algorithm: id-ecPublicKey
                Public-Key: (256 bit)
                pub:
                    04:57:a5:cb:4f:db:ec:3d:17:ea:e2:3d:e2:2c:85:
                    0d:26:24:84:04:a4:59:57:64:b1:3c:d0:73:82:14:
                    dd:a4:31:b3:b0:b4:0a:c4:94:48:2a:03:c9:19:1f:
                    a4:27:24:1a:0f:76:2c:49:5e:0a:07:a8:d8:f1:5b:
                    d5:72:1d:bd:16
                ASN1 OID: prime256v1
                NIST CURVE: P-256
        X509v3 extensions:
            X509v3 Basic Constraints: 
                CA:TRUE
            Netscape Comment: 
                OpenSSL Generated Certificate
            X509v3 Subject Key Identifier: 
                EC:D4:69:AD:80:84:07:72:83:E3:7C:29:94:A4:7E:1A:35:11:BB:9E
            X509v3 Authority Key Identifier: 
                keyid:97:2E:17:34:93:06:90:A7:FD:20:09:47:3F:08:CF:E4:D4:D9:9C:83

    Signature Algorithm: ecdsa-with-SHA256
         30:44:02:20:2b:03:bc:2a:7a:b1:71:97:bb:45:ea:ad:1d:ad:
         bb:a9:54:eb:13:bd:43:c7:c6:57:a3:e8:72:2e:3c:37:77:e7:
         02:20:4a:ce:07:fc:6b:83:3c:93:e5:4e:15:86:44:46:73:f5:
         67:7b:a3:19:ba:d2:0d:27:ee:65:e0:4d:e4:b5:ba:d9
-----BEGIN CERTIFICATE-----
MIICkTCCAjigAwIBAgIULfd4pW31284cvGeI93OHWl+FNo4wCgYIKoZIzj0EAwIw
gYYxCzAJBgNVBAYTAklOMQswCQYDVQQIDAJBUDEWMBQGA1UECgwNUmV2ZWFsIElR
IFBWVDEXMBUGA1UECwwORGlnaXRhbCBIZWFsdGgxFjAUBgNVBAMMDXJldmVhbC5o
ZWFsdGgxITAfBgkqhkiG9w0BCQEWEmluZm9AcmV2ZWFsLmhlYWx0aDAeFw0yMjAy
MjEwNzI5MjNaFw0yMzAyMjEwNzI5MjNaMIGKMQswCQYDVQQGEwJJTjELMAkGA1UE
CAwCQVAxFjAUBgNVBAoMDVJldmVhbCBJUSBQVlQxFzAVBgNVBAsMDkRpZ2l0YWwg
SGVhbHRoMRowGAYDVQQDDBFkZXYucmV2ZWFsLmhlYWx0aDEhMB8GCSqGSIb3DQEJ
ARYSaW5mb0ByZXZlYWwuaGVhbHRoMFkwEwYHKoZIzj0CAQYIKoZIzj0DAQcDQgAE
V6XLT9vsPRfq4j3iLIUNJiSEBKRZV2SxPNBzghTdpDGzsLQKxJRIKgPJGR+kJyQa
D3YsSV4KB6jY8VvVch29FqN+MHwwDAYDVR0TBAUwAwEB/zAsBglghkgBhvhCAQ0E
HxYdT3BlblNTTCBHZW5lcmF0ZWQgQ2VydGlmaWNhdGUwHQYDVR0OBBYEFOzUaa2A
hAdyg+N8KZSkfho1EbueMB8GA1UdIwQYMBaAFJcuFzSTBpCn/SAJRz8Iz+TU2ZyD
MAoGCCqGSM49BAMCA0cAMEQCICsDvCp6sXGXu0XqrR2tu6lU6xO9Q8fGV6Poci48
N3fnAiBKzgf8a4M8k+VOFYZERnP1Z3ujGbrSDSfuZeBN5LW62Q==
-----END CERTIFICATE-----
Certificate:
    Data:
        Version: 3 (0x2)
        Serial Number:
            2e:85:37:a0:96:24:91:e6:4e:5a:69:b2:7e:62:f4:5c:88:07:e3:1b
        Signature Algorithm: ecdsa-with-SHA256
        Issuer: C=IN, ST=AP, O=Reveal IQ PVT, OU=Digital Health, CN=dev.reveal.health/emailAddress=info@reveal.health
        Validity
            Not Before: Mar  1 17:14:32 2022 GMT
            Not After : Feb 27 17:14:32 2032 GMT
        Subject: C=IN, ST=AP, O=Reveal IQ PVT, OU=Digital Health, CN=DB_DEV_CA03/emailAddress=info@reveal.health
        Subject Public Key Info:
            Public Key Algorithm: id-ecPublicKey
                Public-Key: (256 bit)
                pub:
                    04:f9:6f:b1:44:fe:59:3c:79:10:15:c8:2d:75:b8:
                    a7:3b:5c:a2:c0:75:a3:72:13:1f:eb:4d:be:65:4d:
                    fd:9b:f3:ca:3a:15:47:ea:07:cf:7c:2c:78:25:2e:
                    c5:b3:a6:5a:53:65:11:5e:63:b7:db:54:c6:ac:25:
                    0c:c0:a5:c1:5b
                ASN1 OID: prime256v1
                NIST CURVE: P-256
        X509v3 extensions:
            X509v3 Basic Constraints: 
                CA:TRUE, pathlen:1
            X509v3 Subject Key Identifier: 
                CD:CE:4D:7D:7B:C7:3E:07:E8:DA:28:AA:20:8D:A7:56:39:F8:47:A7
            X509v3 Authority Key Identifier: 
                keyid:EC:D4:69:AD:80:84:07:72:83:E3:7C:29:94:A4:7E:1A:35:11:BB:9E

    Signature Algorithm: ecdsa-with-SHA256
         30:45:02:20:09:2b:a5:38:c6:15:35:3c:28:4d:59:f1:de:da:
         bc:ab:40:3c:68:a8:7e:f5:1c:fb:40:0d:5a:8c:7a:b1:13:7e:
         02:21:00:a5:ed:12:f8:03:61:09:9c:88:ec:24:e8:20:d3:ee:
         3c:aa:6c:f8:49:5f:01:63:7e:d2:e2:25:c6:99:72:f9:7c
-----BEGIN CERTIFICATE-----
MIICZTCCAgugAwIBAgIULoU3oJYkkeZOWmmyfmL0XIgH4xswCgYIKoZIzj0EAwIw
gYoxCzAJBgNVBAYTAklOMQswCQYDVQQIDAJBUDEWMBQGA1UECgwNUmV2ZWFsIElR
IFBWVDEXMBUGA1UECwwORGlnaXRhbCBIZWFsdGgxGjAYBgNVBAMMEWRldi5yZXZl
YWwuaGVhbHRoMSEwHwYJKoZIhvcNAQkBFhJpbmZvQHJldmVhbC5oZWFsdGgwHhcN
MjIwMzAxMTcxNDMyWhcNMzIwMjI3MTcxNDMyWjCBhDELMAkGA1UEBhMCSU4xCzAJ
BgNVBAgMAkFQMRYwFAYDVQQKDA1SZXZlYWwgSVEgUFZUMRcwFQYDVQQLDA5EaWdp
dGFsIEhlYWx0aDEUMBIGA1UEAwwLREJfREVWX0NBMDMxITAfBgkqhkiG9w0BCQEW
EmluZm9AcmV2ZWFsLmhlYWx0aDBZMBMGByqGSM49AgEGCCqGSM49AwEHA0IABPlv
sUT+WTx5EBXILXW4pztcosB1o3ITH+tNvmVN/ZvzyjoVR+oHz3wseCUuxbOmWlNl
EV5jt9tUxqwlDMClwVujUzBRMA8GA1UdEwQIMAYBAf8CAQEwHQYDVR0OBBYEFM3O
TX17xz4H6NooqiCNp1Y5+EenMB8GA1UdIwQYMBaAFOzUaa2AhAdyg+N8KZSkfho1
EbueMAoGCCqGSM49BAMCA0gAMEUCIAkrpTjGFTU8KE1Z8d7avKtAPGiofvUc+0AN
Wox6sRN+AiEApe0S+ANhCZyI7CToINPuPKps+ElfAWN+0uIlxply+Xw=
-----END CERTIFICATE-----
